target datalayout = "e-m:e-p270:32:32-p271:32:32-p272:64:64-i64:64-i128:128-f80:128-n8:16:32:64-S128"
target triple = "x86_64-unknown-linux-gnu"

%"class.icu_75::DateIntervalInfo" = type { %"class.icu_75::UObject", %"class.icu_75::UnicodeString", i8, ptr }
%"class.icu_75::UObject" = type { ptr }
%"class.icu_75::UnicodeString" = type { %"class.icu_75::Replaceable", %"union.icu_75::UnicodeString::StackBufferOrFields" }
%"class.icu_75::Replaceable" = type { %"class.icu_75::UObject" }
%"union.icu_75::UnicodeString::StackBufferOrFields" = type { %struct.anon.0, [32 x i8] }
%struct.anon.0 = type { i16, i32, i32, ptr }
%"class.icu_75::Hashtable" = type { ptr, %struct.UHashtable }
%struct.UHashtable = type { ptr, ptr, ptr, ptr, ptr, ptr, i32, i32, i32, i32, float, float, i8, i8 }
%union.UElement = type { ptr }
%struct.UHashElement = type { i32, %union.UElement, %union.UElement }

; Function Attrs: mustprogress nounwind uwtable
define linkonce_odr void @_ZN6icu_759HashtableD2Ev(ptr noundef nonnull align 8 dereferenceable(88) %this) unnamed_addr #0 comdat align 2 personality ptr @__gxx_personality_v0 {
entry:
  %this.addr = alloca ptr, align 8
  store ptr %this, ptr %this.addr, align 8
  %this1 = load ptr, ptr %this.addr, align 8
  %hash = getelementptr inbounds %"class.icu_75::Hashtable", ptr %this1, i32 0, i32 0
  %0 = load ptr, ptr %hash, align 8
  %cmp = icmp ne ptr %0, null
  br i1 %cmp, label %if.then, label %if.end

if.then:                                          ; preds = %entry
  %hash2 = getelementptr inbounds %"class.icu_75::Hashtable", ptr %this1, i32 0, i32 0
  %1 = load ptr, ptr %hash2, align 8
  invoke void @uhash_close_75(ptr noundef %1)
          to label %invoke.cont unwind label %terminate.lpad

invoke.cont:                                      ; preds = %if.then
  br label %if.end

if.end:                                           ; preds = %invoke.cont, %entry
  ret void

terminate.lpad:                                   ; preds = %if.then
  %2 = landingpad { ptr, i32 }
          catch ptr null
  %3 = extractvalue { ptr, i32 } %2, 0
  call void @__clang_call_terminate(ptr %3) #11
  unreachable
}

; Function Attrs: mustprogress uwtable
define linkonce_odr noundef ptr @_ZNK6icu_759Hashtable11nextElementERi(ptr noundef nonnull align 8 dereferenceable(88) %this, ptr noundef nonnull align 4 dereferenceable(4) %pos) #1 comdat align 2 {
entry:
  %this.addr = alloca ptr, align 8
  %pos.addr = alloca ptr, align 8
  store ptr %this, ptr %this.addr, align 8
  store ptr %pos, ptr %pos.addr, align 8
  %this1 = load ptr, ptr %this.addr, align 8
  %hash = getelementptr inbounds %"class.icu_75::Hashtable", ptr %this1, i32 0, i32 0
  %0 = load ptr, ptr %hash, align 8
  %1 = load ptr, ptr %pos.addr, align 8
  %call = call ptr @uhash_nextElement_75(ptr noundef %0, ptr noundef %1)
  ret ptr %call
}

; Function Attrs: mustprogress uwtable
define void @_ZN6icu_7516DateIntervalInfo10deleteHashEPNS_9HashtableE(ptr noundef nonnull align 8 dereferenceable(88) %this, ptr noundef %hTable) #1 align 2 {
entry:
  %this.addr = alloca ptr, align 8
  %hTable.addr = alloca ptr, align 8
  %pos = alloca i32, align 4
  %element = alloca ptr, align 8
  %valueTok = alloca %union.UElement, align 8
  %value3 = alloca ptr, align 8
  store ptr %this, ptr %this.addr, align 8
  store ptr %hTable, ptr %hTable.addr, align 8
  %this1 = load ptr, ptr %this.addr, align 8
  %0 = load ptr, ptr %hTable.addr, align 8
  %cmp = icmp eq ptr %0, null
  br i1 %cmp, label %if.then, label %if.end

if.then:                                          ; preds = %entry
  br label %delete.end8

if.end:                                           ; preds = %entry
  store i32 -1, ptr %pos, align 4
  store ptr null, ptr %element, align 8
  br label %while.cond

while.cond:                                       ; preds = %delete.end5, %if.end
  %1 = load ptr, ptr %hTable.addr, align 8
  %call = call noundef ptr @_ZNK6icu_759Hashtable11nextElementERi(ptr noundef nonnull align 8 dereferenceable(88) %1, ptr noundef nonnull align 4 dereferenceable(4) %pos)
  store ptr %call, ptr %element, align 8
  %cmp2 = icmp ne ptr %call, null
  br i1 %cmp2, label %while.body, label %while.end

while.body:                                       ; preds = %while.cond
  %2 = load ptr, ptr %element, align 8
  %value = getelementptr inbounds %struct.UHashElement, ptr %2, i32 0, i32 1
  call void @llvm.memcpy.p0.p0.i64(ptr align 8 %valueTok, ptr align 8 %value, i64 8, i1 false)
  %3 = load ptr, ptr %valueTok, align 8
  store ptr %3, ptr %value3, align 8
  %4 = load ptr, ptr %value3, align 8
  %isnull = icmp eq ptr %4, null
  br i1 %isnull, label %delete.end5, label %delete.notnull

delete.notnull:                                   ; preds = %while.body
  %5 = getelementptr inbounds i8, ptr %4, i64 -8
  %6 = load i64, ptr %5, align 8
  %delete.end = getelementptr inbounds %"class.icu_75::UnicodeString", ptr %4, i64 %6
  %arraydestroy.isempty = icmp eq ptr %4, %delete.end
  br i1 %arraydestroy.isempty, label %arraydestroy.done4, label %arraydestroy.body

arraydestroy.body:                                ; preds = %arraydestroy.body, %delete.notnull
  %arraydestroy.elementPast = phi ptr [ %delete.end, %delete.notnull ], [ %arraydestroy.element, %arraydestroy.body ]
  %arraydestroy.element = getelementptr inbounds %"class.icu_75::UnicodeString", ptr %arraydestroy.elementPast, i64 -1
  call void @_ZN6icu_7513UnicodeStringD1Ev(ptr noundef nonnull align 8 dereferenceable(64) %arraydestroy.element) #9
  %arraydestroy.done = icmp eq ptr %arraydestroy.element, %4
  br i1 %arraydestroy.done, label %arraydestroy.done4, label %arraydestroy.body

arraydestroy.done4:                               ; preds = %arraydestroy.body, %delete.notnull
  call void @_ZN6icu_757UMemorydaEPv(ptr noundef %5) #9
  br label %delete.end5

delete.end5:                                      ; preds = %arraydestroy.done4, %while.body
  br label %while.cond, !llvm.loop !6

while.end:                                        ; preds = %while.cond
  %fIntervalPatterns = getelementptr inbounds %"class.icu_75::DateIntervalInfo", ptr %this1, i32 0, i32 3
  %7 = load ptr, ptr %fIntervalPatterns, align 8
  %isnull6 = icmp eq ptr %7, null
  br i1 %isnull6, label %delete.end8, label %delete.notnull7

delete.notnull7:                                  ; preds = %while.end
  call void @_ZN6icu_759HashtableD2Ev(ptr noundef nonnull align 8 dereferenceable(88) %7) #9
  call void @_ZN6icu_757UMemorydlEPv(ptr noundef %7) #9
  br label %delete.end8

delete.end8:                                      ; preds = %delete.notnull7, %while.end, %if.then
  ret void
}