; Function Attrs: mustprogress uwtable
define void @_ZN6icu_7516DateIntervalInfo10deleteHashEPNS_9HashtableE(ptr nocapture noundef nonnull readonly align 8 dereferenceable(88) %this, ptr noundef readonly %hTable) local_unnamed_addr #1 align 2 personality ptr @__gxx_personality_v0 {
entry:
  %pos = alloca i32, align 4
  %cmp = icmp eq ptr %hTable, null
  br i1 %cmp, label %delete.end8, label %if.end

if.end:                                           ; preds = %entry
  store i32 -1, ptr %pos, align 4
  %0 = load ptr, ptr %hTable, align 8
  %call.i2 = call noundef ptr @uhash_nextElement_75(ptr noundef %0, ptr noundef nonnull %pos)
  %cmp2.not3 = icmp eq ptr %call.i2, null
  br i1 %cmp2.not3, label %while.end, label %while.body

while.body:                                       ; preds = %if.end, %delete.end5
  %call.i4 = phi ptr [ %call.i, %delete.end5 ], [ %call.i2, %if.end ]
  %value = getelementptr inbounds i8, ptr %call.i4, i64 8
  %valueTok.sroa.0.0.copyload = load ptr, ptr %value, align 8
  %isnull = icmp eq ptr %valueTok.sroa.0.0.copyload, null
  br i1 %isnull, label %delete.end5, label %delete.notnull

delete.notnull:                                   ; preds = %while.body
  %1 = getelementptr inbounds i8, ptr %valueTok.sroa.0.0.copyload, i64 -8
  %2 = load i64, ptr %1, align 8
  %arraydestroy.isempty = icmp eq i64 %2, 0
  br i1 %arraydestroy.isempty, label %arraydestroy.done4, label %arraydestroy.body.preheader

arraydestroy.body.preheader:                      ; preds = %delete.notnull
  %delete.end = getelementptr inbounds %"class.icu_75::UnicodeString", ptr %valueTok.sroa.0.0.copyload, i64 %2
  br label %arraydestroy.body

arraydestroy.body:                                ; preds = %arraydestroy.body.preheader, %arraydestroy.body
  %arraydestroy.elementPast = phi ptr [ %arraydestroy.element, %arraydestroy.body ], [ %delete.end, %arraydestroy.body.preheader ]
  %arraydestroy.element = getelementptr inbounds i8, ptr %arraydestroy.elementPast, i64 -64
  call void @_ZN6icu_7513UnicodeStringD1Ev(ptr noundef nonnull align 8 dereferenceable(64) %arraydestroy.element) #15
  %arraydestroy.done = icmp eq ptr %arraydestroy.element, %valueTok.sroa.0.0.copyload
  br i1 %arraydestroy.done, label %arraydestroy.done4, label %arraydestroy.body

arraydestroy.done4:                               ; preds = %arraydestroy.body, %delete.notnull
  call void @_ZN6icu_757UMemorydaEPv(ptr noundef nonnull %1) #15
  br label %delete.end5

delete.end5:                                      ; preds = %arraydestroy.done4, %while.body
  %3 = load ptr, ptr %hTable, align 8
  %call.i = call noundef ptr @uhash_nextElement_75(ptr noundef %3, ptr noundef nonnull %pos)
  %cmp2.not = icmp eq ptr %call.i, null
  br i1 %cmp2.not, label %while.end, label %while.body, !llvm.loop !5

while.end:                                        ; preds = %delete.end5, %if.end
  %fIntervalPatterns = getelementptr inbounds i8, ptr %this, i64 80
  %4 = load ptr, ptr %fIntervalPatterns, align 8
  %isnull6 = icmp eq ptr %4, null
  br i1 %isnull6, label %delete.end8, label %delete.notnull7

delete.notnull7:                                  ; preds = %while.end
  %5 = load ptr, ptr %4, align 8
  %cmp.not.i = icmp eq ptr %5, null
  br i1 %cmp.not.i, label %_ZN6icu_759HashtableD2Ev.exit, label %if.then.i

if.then.i:                                        ; preds = %delete.notnull7
  invoke void @uhash_close_75(ptr noundef nonnull %5)
          to label %_ZN6icu_759HashtableD2Ev.exit unwind label %terminate.lpad.i

terminate.lpad.i:                                 ; preds = %if.then.i
  %6 = landingpad { ptr, i32 }
          catch ptr null
  %7 = extractvalue { ptr, i32 } %6, 0
  call void @__clang_call_terminate(ptr %7) #17
  unreachable

_ZN6icu_759HashtableD2Ev.exit:                    ; preds = %delete.notnull7, %if.then.i
  call void @_ZN6icu_757UMemorydlEPv(ptr noundef nonnull %4) #15
  br label %delete.end8

delete.end8:                                      ; preds = %entry, %_ZN6icu_759HashtableD2Ev.exit, %while.end
  ret void
}